; Function Attrs: nounwind uwtable
define ptr @Aig_ManDupSimpleDfsPart(ptr noundef %0, ptr noundef readonly captures(none) %1, ptr noundef readonly captures(none) %2) local_unnamed_addr #0 {
  %4 = getelementptr i8, ptr %0, i64 32
  %.val28 = load ptr, ptr %4, align 8, !tbaa !3
  %5 = getelementptr i8, ptr %.val28, i64 4
  %.val28.val = load i32, ptr %5, align 4, !tbaa !21
  %6 = tail call ptr @Aig_ManStart(i32 noundef %.val28.val) #11
  tail call void @Aig_ManCleanData(ptr noundef %0) #11
  %7 = getelementptr i8, ptr %6, i64 48
  %.val30 = load ptr, ptr %7, align 8, !tbaa !33
  %8 = getelementptr i8, ptr %0, i64 48
  %.val29 = load ptr, ptr %8, align 8, !tbaa !33
  %9 = getelementptr inbounds nuw i8, ptr %.val29, i64 40
  store ptr %.val30, ptr %9, align 8, !tbaa !34
  %10 = getelementptr i8, ptr %1, i64 4
  %.val2735 = load i32, ptr %10, align 4, !tbaa !21
  %11 = icmp sgt i32 %.val2735, 0
  br i1 %11, label %.lr.ph, label %.critedge.preheader

.lr.ph:                                           ; preds = %3
  %12 = getelementptr i8, ptr %1, i64 8
  br label %16

.critedge.preheader:                              ; preds = %16, %3
  %13 = getelementptr i8, ptr %2, i64 4
  %.val37 = load i32, ptr %13, align 4, !tbaa !21
  %14 = icmp sgt i32 %.val37, 0
  br i1 %14, label %.lr.ph39, label %.critedge2

.lr.ph39:                                         ; preds = %.critedge.preheader
  %15 = getelementptr i8, ptr %2, i64 8
  br label %.critedge

16:                                               ; preds = %.lr.ph, %16
  %indvars.iv = phi i64 [ 0, %.lr.ph ], [ %indvars.iv.next, %16 ]
  %.val32 = load ptr, ptr %12, align 8, !tbaa !36
  %17 = getelementptr inbounds nuw ptr, ptr %.val32, i64 %indvars.iv
  %18 = load ptr, ptr %17, align 8, !tbaa !37
  %19 = tail call ptr @Aig_ObjCreateCi(ptr noundef %6) #11
  %20 = getelementptr inbounds nuw i8, ptr %18, i64 40
  store ptr %19, ptr %20, align 8, !tbaa !34
  %indvars.iv.next = add nuw nsw i64 %indvars.iv, 1
  %.val27 = load i32, ptr %10, align 4, !tbaa !21
  %21 = sext i32 %.val27 to i64
  %22 = icmp slt i64 %indvars.iv.next, %21
  br i1 %22, label %16, label %.critedge.preheader, !llvm.loop !54

.critedge:                                        ; preds = %.lr.ph39, %.critedge
  %indvars.iv41 = phi i64 [ 0, %.lr.ph39 ], [ %indvars.iv.next42, %.critedge ]
  %.val31 = load ptr, ptr %15, align 8, !tbaa !36
  %23 = getelementptr inbounds nuw ptr, ptr %.val31, i64 %indvars.iv41
  %24 = load ptr, ptr %23, align 8, !tbaa !37
  %25 = getelementptr i8, ptr %24, i64 8
  %.val33 = load ptr, ptr %25, align 8, !tbaa !41
  %26 = ptrtoint ptr %.val33 to i64
  %27 = and i64 %26, -2
  %28 = inttoptr i64 %27 to ptr
  %29 = tail call ptr @Aig_ManDupSimpleDfs_rec(ptr noundef %6, ptr noundef %0, ptr noundef %28)
  %.val34 = load ptr, ptr %25, align 8, !tbaa !41
  %30 = ptrtoint ptr %.val34 to i64
  %31 = and i64 %30, 1
  %32 = ptrtoint ptr %29 to i64
  %33 = xor i64 %31, %32
  %34 = inttoptr i64 %33 to ptr
  %35 = tail call ptr @Aig_ObjCreateCo(ptr noundef %6, ptr noundef %34) #11
  %indvars.iv.next42 = add nuw nsw i64 %indvars.iv41, 1
  %.val = load i32, ptr %13, align 4, !tbaa !21
  %36 = sext i32 %.val to i64
  %37 = icmp slt i64 %indvars.iv.next42, %36
  br i1 %37, label %.critedge, label %.critedge2, !llvm.loop !55

.critedge2:                                       ; preds = %.critedge, %.critedge.preheader
  tail call void @Aig_ManSetRegNum(ptr noundef %6, i32 noundef 0) #11
  %38 = tail call i32 @Aig_ManCheck(ptr noundef %6) #11
  %.not = icmp eq i32 %38, 0
  br i1 %.not, label %39, label %40

39:                                               ; preds = %.critedge2
  %puts = tail call i32 @puts(ptr nonnull dereferenceable(1) @str.16)
  br label %40

40:                                               ; preds = %39, %.critedge2
  ret ptr %6
}